target datalayout = "e-m:e-p270:32:32-p271:32:32-p272:64:64-i64:64-i128:128-f80:128-n8:16:32:64-S128"
target triple = "x86_64-pc-linux-gnu"

%struct.exr_attribute_list = type { i32, i32, ptr, ptr }
%struct._priv_exr_context_t = type { i8, i8, i8, i8, i8, i8, i8, i8, %struct.exr_attr_string_t, %struct.exr_attr_string_t, ptr, ptr, ptr, ptr, ptr, ptr, ptr, ptr, i32, i32, i32, i32, i32, float, ptr, ptr, ptr, i64, ptr, ptr, i64, i32, i32, i32, i32, %struct._priv_exr_part_t, ptr, ptr, %struct.exr_attribute_list, %union.pthread_mutex_t, i8, i8, [2 x i8], i32 }
%struct.exr_attr_string_t = type { i32, i32, ptr }
%struct._priv_exr_part_t = type { i32, i32, %struct.exr_attribute_list, ptr, ptr, ptr, ptr, ptr, ptr, ptr, ptr, ptr, ptr, ptr, ptr, ptr, ptr, %struct.exr_attr_box2i_t, %struct.exr_attr_box2i_t, i32, i32, i32, float, i32, i32, ptr, ptr, ptr, ptr, i64, i16, i16, i32, i64, i64 }
%struct.exr_attr_box2i_t = type { %struct.exr_attr_v2i_t, %struct.exr_attr_v2i_t }
%struct.exr_attr_v2i_t = type { i32, i32 }
%union.pthread_mutex_t = type { %struct.__pthread_mutex_s }
%struct.__pthread_mutex_s = type { i32, i32, i32, i32, i32, i16, i16, %struct.__pthread_internal_list }
%struct.__pthread_internal_list = type { ptr, ptr }
%struct.exr_attribute_t = type { ptr, ptr, i8, i8, [2 x i8], i32, %union.anon }
%union.anon = type { double }

@.str.3 = private unnamed_addr constant [46 x i8] c"Invalid output pointer passed to find_by_name\00", align 1
@.str.4 = private unnamed_addr constant [36 x i8] c"Invalid name passed to find_by_name\00", align 1
@.str.5 = private unnamed_addr constant [44 x i8] c"Invalid list pointer passed to find_by_name\00", align 1
@.str.45 = private unnamed_addr constant [38 x i8] c"Invalid list pointer to attr_list_add\00", align 1
@.str.46 = private unnamed_addr constant [59 x i8] c"Invalid output attribute pointer location to attr_list_add\00", align 1
@.str.47 = private unnamed_addr constant [50 x i8] c"Extra data storage requested negative length (%d)\00", align 1
@.str.48 = private unnamed_addr constant [83 x i8] c"Extra data storage output pointer must be provided when requesting extra data (%d)\00", align 1
@.str.49 = private unnamed_addr constant [28 x i8] c"Invalid name to add_by_type\00", align 1
@.str.50 = private unnamed_addr constant [72 x i8] c"Attribute '%s' (type %s) already in list but requesting additional data\00", align 1

; Function Attrs: nounwind uwtable
define hidden i32 @exr_attr_list_find_by_name(ptr noundef %0, ptr noundef %1, ptr noundef %2, ptr noundef %3) #0 {
  %5 = alloca i32, align 4
  %6 = alloca ptr, align 8
  %7 = alloca ptr, align 8
  %8 = alloca ptr, align 8
  %9 = alloca ptr, align 8
  %10 = alloca ptr, align 8
  %11 = alloca ptr, align 8
  %12 = alloca ptr, align 8
  %13 = alloca i32, align 4
  %14 = alloca i32, align 4
  %15 = alloca i32, align 4
  %16 = alloca i32, align 4
  store ptr %0, ptr %6, align 8, !tbaa !15
  store ptr %1, ptr %7, align 8, !tbaa !17
  store ptr %2, ptr %8, align 8, !tbaa !3
  store ptr %3, ptr %9, align 8, !tbaa !37
  call void @llvm.lifetime.start.p0(i64 8, ptr %10) #6
  store ptr null, ptr %10, align 8, !tbaa !37
  call void @llvm.lifetime.start.p0(i64 8, ptr %11) #6
  store ptr null, ptr %11, align 8, !tbaa !37
  call void @llvm.lifetime.start.p0(i64 8, ptr %12) #6
  store ptr null, ptr %12, align 8, !tbaa !37
  call void @llvm.lifetime.start.p0(i64 4, ptr %13) #6
  call void @llvm.lifetime.start.p0(i64 4, ptr %14) #6
  call void @llvm.lifetime.start.p0(i64 4, ptr %15) #6
  %17 = load ptr, ptr %6, align 8, !tbaa !15
  %18 = icmp ne ptr %17, null
  br i1 %18, label %20, label %19

19:                                               ; preds = %4
  store i32 2, ptr %5, align 4
  store i32 1, ptr %16, align 4
  br label %126

20:                                               ; preds = %4
  %21 = load ptr, ptr %9, align 8, !tbaa !37
  %22 = icmp ne ptr %21, null
  br i1 %22, label %29, label %23

23:                                               ; preds = %20
  %24 = load ptr, ptr %6, align 8, !tbaa !15
  %25 = getelementptr inbounds nuw %struct._priv_exr_context_t, ptr %24, i32 0, i32 13
  %26 = load ptr, ptr %25, align 8, !tbaa !44
  %27 = load ptr, ptr %6, align 8, !tbaa !15
  %28 = call i32 %26(ptr noundef %27, i32 noundef 3, ptr noundef @.str.3)
  store i32 %28, ptr %5, align 4
  store i32 1, ptr %16, align 4
  br label %126

29:                                               ; preds = %20
  %30 = load ptr, ptr %8, align 8, !tbaa !3
  %31 = icmp ne ptr %30, null
  br i1 %31, label %32, label %38

32:                                               ; preds = %29
  %33 = load ptr, ptr %8, align 8, !tbaa !3
  %34 = getelementptr inbounds i8, ptr %33, i64 0
  %35 = load i8, ptr %34, align 1, !tbaa !40
  %36 = sext i8 %35 to i32
  %37 = icmp eq i32 %36, 0
  br i1 %37, label %38, label %44

38:                                               ; preds = %32, %29
  %39 = load ptr, ptr %6, align 8, !tbaa !15
  %40 = getelementptr inbounds nuw %struct._priv_exr_context_t, ptr %39, i32 0, i32 13
  %41 = load ptr, ptr %40, align 8, !tbaa !44
  %42 = load ptr, ptr %6, align 8, !tbaa !15
  %43 = call i32 %41(ptr noundef %42, i32 noundef 3, ptr noundef @.str.4)
  store i32 %43, ptr %5, align 4
  store i32 1, ptr %16, align 4
  br label %126

44:                                               ; preds = %32
  %45 = load ptr, ptr %7, align 8, !tbaa !17
  %46 = icmp ne ptr %45, null
  br i1 %46, label %53, label %47

47:                                               ; preds = %44
  %48 = load ptr, ptr %6, align 8, !tbaa !15
  %49 = getelementptr inbounds nuw %struct._priv_exr_context_t, ptr %48, i32 0, i32 13
  %50 = load ptr, ptr %49, align 8, !tbaa !44
  %51 = load ptr, ptr %6, align 8, !tbaa !15
  %52 = call i32 %50(ptr noundef %51, i32 noundef 3, ptr noundef @.str.5)
  store i32 %52, ptr %5, align 4
  store i32 1, ptr %16, align 4
  br label %126

53:                                               ; preds = %44
  %54 = load ptr, ptr %7, align 8, !tbaa !17
  %55 = getelementptr inbounds nuw %struct.exr_attribute_list, ptr %54, i32 0, i32 3
  %56 = load ptr, ptr %55, align 8, !tbaa !69
  %57 = icmp ne ptr %56, null
  br i1 %57, label %58, label %125

58:                                               ; preds = %53
  %59 = load ptr, ptr %7, align 8, !tbaa !17
  %60 = getelementptr inbounds nuw %struct.exr_attribute_list, ptr %59, i32 0, i32 3
  %61 = load ptr, ptr %60, align 8, !tbaa !69
  store ptr %61, ptr %11, align 8, !tbaa !37
  %62 = load ptr, ptr %7, align 8, !tbaa !17
  %63 = getelementptr inbounds nuw %struct.exr_attribute_list, ptr %62, i32 0, i32 0
  %64 = load i32, ptr %63, align 8, !tbaa !22
  store i32 %64, ptr %14, align 4, !tbaa !8
  %65 = load ptr, ptr %11, align 8, !tbaa !37
  %66 = load i32, ptr %14, align 4, !tbaa !8
  %67 = sext i32 %66 to i64
  %68 = getelementptr inbounds ptr, ptr %65, i64 %67
  store ptr %68, ptr %12, align 8, !tbaa !37
  br label %69

69:                                               ; preds = %104, %58
  %70 = load i32, ptr %14, align 4, !tbaa !8
  %71 = icmp sgt i32 %70, 0
  br i1 %71, label %72, label %105

72:                                               ; preds = %69
  %73 = load ptr, ptr %11, align 8, !tbaa !37
  store ptr %73, ptr %10, align 8, !tbaa !37
  %74 = load i32, ptr %14, align 4, !tbaa !8
  %75 = sdiv i32 %74, 2
  store i32 %75, ptr %13, align 4, !tbaa !8
  %76 = load i32, ptr %13, align 4, !tbaa !8
  %77 = load ptr, ptr %10, align 8, !tbaa !37
  %78 = sext i32 %76 to i64
  %79 = getelementptr inbounds ptr, ptr %77, i64 %78
  store ptr %79, ptr %10, align 8, !tbaa !37
  %80 = load ptr, ptr %10, align 8, !tbaa !37
  %81 = load ptr, ptr %80, align 8, !tbaa !23
  %82 = getelementptr inbounds nuw %struct.exr_attribute_t, ptr %81, i32 0, i32 0
  %83 = load ptr, ptr %82, align 8, !tbaa !67
  %84 = load ptr, ptr %8, align 8, !tbaa !3
  %85 = call i32 @strcmp(ptr noundef %83, ptr noundef %84) #7
  store i32 %85, ptr %15, align 4, !tbaa !8
  %86 = load i32, ptr %15, align 4, !tbaa !8
  %87 = icmp eq i32 %86, 0
  br i1 %87, label %88, label %92

88:                                               ; preds = %72
  %89 = load ptr, ptr %10, align 8, !tbaa !37
  %90 = load ptr, ptr %89, align 8, !tbaa !23
  %91 = load ptr, ptr %9, align 8, !tbaa !37
  store ptr %90, ptr %91, align 8, !tbaa !23
  store i32 0, ptr %5, align 4
  store i32 1, ptr %16, align 4
  br label %126

92:                                               ; preds = %72
  %93 = load i32, ptr %15, align 4, !tbaa !8
  %94 = icmp slt i32 %93, 0
  br i1 %94, label %95, label %102

95:                                               ; preds = %92
  %96 = load ptr, ptr %10, align 8, !tbaa !37
  %97 = getelementptr inbounds nuw ptr, ptr %96, i32 1
  store ptr %97, ptr %10, align 8, !tbaa !37
  store ptr %97, ptr %11, align 8, !tbaa !37
  %98 = load i32, ptr %13, align 4, !tbaa !8
  %99 = add nsw i32 %98, 1
  %100 = load i32, ptr %14, align 4, !tbaa !8
  %101 = sub nsw i32 %100, %99
  store i32 %101, ptr %14, align 4, !tbaa !8
  br label %104

102:                                              ; preds = %92
  %103 = load i32, ptr %13, align 4, !tbaa !8
  store i32 %103, ptr %14, align 4, !tbaa !8
  br label %104

104:                                              ; preds = %102, %95
  br label %69, !llvm.loop !70

105:                                              ; preds = %69
  %106 = load ptr, ptr %11, align 8, !tbaa !37
  %107 = icmp ne ptr %106, null
  br i1 %107, label %108, label %124

108:                                              ; preds = %105
  %109 = load ptr, ptr %11, align 8, !tbaa !37
  %110 = load ptr, ptr %12, align 8, !tbaa !37
  %111 = icmp ult ptr %109, %110
  br i1 %111, label %112, label %124

112:                                              ; preds = %108
  %113 = load ptr, ptr %11, align 8, !tbaa !37
  %114 = load ptr, ptr %113, align 8, !tbaa !23
  %115 = getelementptr inbounds nuw %struct.exr_attribute_t, ptr %114, i32 0, i32 0
  %116 = load ptr, ptr %115, align 8, !tbaa !67
  %117 = load ptr, ptr %8, align 8, !tbaa !3
  %118 = call i32 @strcmp(ptr noundef %116, ptr noundef %117) #7
  %119 = icmp eq i32 0, %118
  br i1 %119, label %120, label %124

120:                                              ; preds = %112
  %121 = load ptr, ptr %11, align 8, !tbaa !37
  %122 = load ptr, ptr %121, align 8, !tbaa !23
  %123 = load ptr, ptr %9, align 8, !tbaa !37
  store ptr %122, ptr %123, align 8, !tbaa !23
  store i32 0, ptr %5, align 4
  store i32 1, ptr %16, align 4
  br label %126

124:                                              ; preds = %112, %108, %105
  br label %125

125:                                              ; preds = %124, %53
  store i32 15, ptr %5, align 4
  store i32 1, ptr %16, align 4
  br label %126

126:                                              ; preds = %125, %120, %88, %47, %38, %23, %19
  call void @llvm.lifetime.end.p0(i64 4, ptr %15) #6
  call void @llvm.lifetime.end.p0(i64 4, ptr %14) #6
  call void @llvm.lifetime.end.p0(i64 4, ptr %13) #6
  call void @llvm.lifetime.end.p0(i64 8, ptr %12) #6
  call void @llvm.lifetime.end.p0(i64 8, ptr %11) #6
  call void @llvm.lifetime.end.p0(i64 8, ptr %10) #6
  %127 = load i32, ptr %5, align 4
  ret i32 %127
}

; Function Attrs: nounwind uwtable
define internal i32 @validate_attr_arguments(ptr noundef %0, ptr noundef %1, ptr noundef %2, i32 noundef %3, ptr noundef %4, ptr noundef %5) #0 {
  %7 = alloca i32, align 4
  %8 = alloca ptr, align 8
  %9 = alloca ptr, align 8
  %10 = alloca ptr, align 8
  %11 = alloca i32, align 4
  %12 = alloca ptr, align 8
  %13 = alloca ptr, align 8
  %14 = alloca ptr, align 8
  %15 = alloca i32, align 4
  %16 = alloca i32, align 4
  store ptr %0, ptr %8, align 8, !tbaa !15
  store ptr %1, ptr %9, align 8, !tbaa !17
  store ptr %2, ptr %10, align 8, !tbaa !3
  store i32 %3, ptr %11, align 4, !tbaa !8
  store ptr %4, ptr %12, align 8, !tbaa !71
  store ptr %5, ptr %13, align 8, !tbaa !37
  call void @llvm.lifetime.start.p0(i64 8, ptr %14) #6
  store ptr null, ptr %14, align 8, !tbaa !23
  call void @llvm.lifetime.start.p0(i64 4, ptr %15) #6
  %17 = load ptr, ptr %9, align 8, !tbaa !17
  %18 = icmp ne ptr %17, null
  br i1 %18, label %25, label %19

19:                                               ; preds = %6
  %20 = load ptr, ptr %8, align 8, !tbaa !15
  %21 = getelementptr inbounds nuw %struct._priv_exr_context_t, ptr %20, i32 0, i32 13
  %22 = load ptr, ptr %21, align 8, !tbaa !44
  %23 = load ptr, ptr %8, align 8, !tbaa !15
  %24 = call i32 %22(ptr noundef %23, i32 noundef 3, ptr noundef @.str.45)
  store i32 %24, ptr %7, align 4
  store i32 1, ptr %16, align 4
  br label %107

25:                                               ; preds = %6
  %26 = load ptr, ptr %13, align 8, !tbaa !37
  %27 = icmp ne ptr %26, null
  br i1 %27, label %34, label %28

28:                                               ; preds = %25
  %29 = load ptr, ptr %8, align 8, !tbaa !15
  %30 = getelementptr inbounds nuw %struct._priv_exr_context_t, ptr %29, i32 0, i32 13
  %31 = load ptr, ptr %30, align 8, !tbaa !44
  %32 = load ptr, ptr %8, align 8, !tbaa !15
  %33 = call i32 %31(ptr noundef %32, i32 noundef 3, ptr noundef @.str.46)
  store i32 %33, ptr %7, align 4
  store i32 1, ptr %16, align 4
  br label %107

34:                                               ; preds = %25
  %35 = load ptr, ptr %13, align 8, !tbaa !37
  store ptr null, ptr %35, align 8, !tbaa !23
  %36 = load i32, ptr %11, align 4, !tbaa !8
  %37 = icmp slt i32 %36, 0
  br i1 %37, label %38, label %45

38:                                               ; preds = %34
  %39 = load ptr, ptr %8, align 8, !tbaa !15
  %40 = getelementptr inbounds nuw %struct._priv_exr_context_t, ptr %39, i32 0, i32 14
  %41 = load ptr, ptr %40, align 8, !tbaa !65
  %42 = load ptr, ptr %8, align 8, !tbaa !15
  %43 = load i32, ptr %11, align 4, !tbaa !8
  %44 = call i32 (ptr, i32, ptr, ...) %41(ptr noundef %42, i32 noundef 3, ptr noundef @.str.47, i32 noundef %43)
  store i32 %44, ptr %7, align 4
  store i32 1, ptr %16, align 4
  br label %107

45:                                               ; preds = %34
  %46 = load i32, ptr %11, align 4, !tbaa !8
  %47 = icmp sgt i32 %46, 0
  br i1 %47, label %48, label %58

48:                                               ; preds = %45
  %49 = load ptr, ptr %12, align 8, !tbaa !71
  %50 = icmp ne ptr %49, null
  br i1 %50, label %58, label %51

51:                                               ; preds = %48
  %52 = load ptr, ptr %8, align 8, !tbaa !15
  %53 = getelementptr inbounds nuw %struct._priv_exr_context_t, ptr %52, i32 0, i32 14
  %54 = load ptr, ptr %53, align 8, !tbaa !65
  %55 = load ptr, ptr %8, align 8, !tbaa !15
  %56 = load i32, ptr %11, align 4, !tbaa !8
  %57 = call i32 (ptr, i32, ptr, ...) %54(ptr noundef %55, i32 noundef 3, ptr noundef @.str.48, i32 noundef %56)
  store i32 %57, ptr %7, align 4
  store i32 1, ptr %16, align 4
  br label %107

58:                                               ; preds = %48, %45
  %59 = load ptr, ptr %12, align 8, !tbaa !71
  %60 = icmp ne ptr %59, null
  br i1 %60, label %61, label %63

61:                                               ; preds = %58
  %62 = load ptr, ptr %12, align 8, !tbaa !71
  store ptr null, ptr %62, align 8, !tbaa !3
  br label %63

63:                                               ; preds = %61, %58
  br label %64

64:                                               ; preds = %63
  br label %65

65:                                               ; preds = %64
  %66 = load ptr, ptr %10, align 8, !tbaa !3
  %67 = icmp ne ptr %66, null
  br i1 %67, label %68, label %74

68:                                               ; preds = %65
  %69 = load ptr, ptr %10, align 8, !tbaa !3
  %70 = getelementptr inbounds i8, ptr %69, i64 0
  %71 = load i8, ptr %70, align 1, !tbaa !40
  %72 = sext i8 %71 to i32
  %73 = icmp eq i32 %72, 0
  br i1 %73, label %74, label %80

74:                                               ; preds = %68, %65
  %75 = load ptr, ptr %8, align 8, !tbaa !15
  %76 = getelementptr inbounds nuw %struct._priv_exr_context_t, ptr %75, i32 0, i32 13
  %77 = load ptr, ptr %76, align 8, !tbaa !44
  %78 = load ptr, ptr %8, align 8, !tbaa !15
  %79 = call i32 %77(ptr noundef %78, i32 noundef 3, ptr noundef @.str.49)
  store i32 %79, ptr %7, align 4
  store i32 1, ptr %16, align 4
  br label %107

80:                                               ; preds = %68
  %81 = load ptr, ptr %8, align 8, !tbaa !15
  %82 = load ptr, ptr %9, align 8, !tbaa !17
  %83 = load ptr, ptr %10, align 8, !tbaa !3
  %84 = call i32 @exr_attr_list_find_by_name(ptr noundef %81, ptr noundef %82, ptr noundef %83, ptr noundef %14)
  store i32 %84, ptr %15, align 4, !tbaa !8
  %85 = load i32, ptr %15, align 4, !tbaa !8
  %86 = icmp eq i32 %85, 0
  br i1 %86, label %87, label %106

87:                                               ; preds = %80
  %88 = load ptr, ptr %12, align 8, !tbaa !71
  %89 = icmp ne ptr %88, null
  br i1 %89, label %90, label %103

90:                                               ; preds = %87
  %91 = load i32, ptr %11, align 4, !tbaa !8
  %92 = icmp sgt i32 %91, 0
  br i1 %92, label %93, label %103

93:                                               ; preds = %90
  %94 = load ptr, ptr %8, align 8, !tbaa !15
  %95 = getelementptr inbounds nuw %struct._priv_exr_context_t, ptr %94, i32 0, i32 14
  %96 = load ptr, ptr %95, align 8, !tbaa !65
  %97 = load ptr, ptr %8, align 8, !tbaa !15
  %98 = load ptr, ptr %10, align 8, !tbaa !3
  %99 = load ptr, ptr %14, align 8, !tbaa !23
  %100 = getelementptr inbounds nuw %struct.exr_attribute_t, ptr %99, i32 0, i32 1
  %101 = load ptr, ptr %100, align 8, !tbaa !66
  %102 = call i32 (ptr, i32, ptr, ...) %96(ptr noundef %97, i32 noundef 3, ptr noundef @.str.50, ptr noundef %98, ptr noundef %101)
  store i32 %102, ptr %7, align 4
  store i32 1, ptr %16, align 4
  br label %107

103:                                              ; preds = %90, %87
  %104 = load ptr, ptr %14, align 8, !tbaa !23
  %105 = load ptr, ptr %13, align 8, !tbaa !37
  store ptr %104, ptr %105, align 8, !tbaa !23
  store i32 -1, ptr %7, align 4
  store i32 1, ptr %16, align 4
  br label %107

106:                                              ; preds = %80
  store i32 0, ptr %7, align 4
  store i32 1, ptr %16, align 4
  br label %107

107:                                              ; preds = %106, %103, %93, %74, %51, %38, %28, %19
  call void @llvm.lifetime.end.p0(i64 4, ptr %15) #6
  call void @llvm.lifetime.end.p0(i64 8, ptr %14) #6
  %108 = load i32, ptr %7, align 4
  ret i32 %108
}