; Function Attrs: nounwind uwtable
define internal fastcc i32 @validate_attr_arguments(ptr noundef nonnull %0, ptr noundef readonly %1, ptr noundef %2, i32 noundef %3, ptr noundef writeonly %4, ptr noundef writeonly %5) unnamed_addr #3 {
  %.not = icmp eq ptr %1, null
  br i1 %.not, label %7, label %11

7:                                                ; preds = %6
  %8 = getelementptr inbounds nuw i8, ptr %0, i64 64
  %9 = load ptr, ptr %8, align 8, !tbaa !33
  %10 = tail call i32 %9(ptr noundef nonnull %0, i32 noundef 3, ptr noundef nonnull @.str.45) #9
  br label %exr_attr_list_find_by_name.exit.thread

11:                                               ; preds = %6
  %.not40 = icmp eq ptr %5, null
  br i1 %.not40, label %12, label %16

12:                                               ; preds = %11
  %13 = getelementptr inbounds nuw i8, ptr %0, i64 64
  %14 = load ptr, ptr %13, align 8, !tbaa !33
  %15 = tail call i32 %14(ptr noundef nonnull %0, i32 noundef 3, ptr noundef nonnull @.str.46) #9
  br label %exr_attr_list_find_by_name.exit.thread

16:                                               ; preds = %11
  store ptr null, ptr %5, align 8, !tbaa !28
  %17 = icmp slt i32 %3, 0
  br i1 %17, label %18, label %22

18:                                               ; preds = %16
  %19 = getelementptr inbounds nuw i8, ptr %0, i64 72
  %20 = load ptr, ptr %19, align 8, !tbaa !55
  %21 = tail call i32 (ptr, i32, ptr, ...) %20(ptr noundef nonnull %0, i32 noundef 3, ptr noundef nonnull @.str.47, i32 noundef %3) #9
  br label %exr_attr_list_find_by_name.exit.thread

22:                                               ; preds = %16
  %23 = icmp eq i32 %3, 0
  %24 = icmp ne ptr %4, null
  %or.cond = or i1 %23, %24
  br i1 %or.cond, label %29, label %25

25:                                               ; preds = %22
  %26 = getelementptr inbounds nuw i8, ptr %0, i64 72
  %27 = load ptr, ptr %26, align 8, !tbaa !55
  %28 = tail call i32 (ptr, i32, ptr, ...) %27(ptr noundef nonnull %0, i32 noundef 3, ptr noundef nonnull @.str.48, i32 noundef %3) #9
  br label %exr_attr_list_find_by_name.exit.thread

29:                                               ; preds = %22
  br i1 %24, label %30, label %31

30:                                               ; preds = %29
  store ptr null, ptr %4, align 8, !tbaa !67
  br label %31

31:                                               ; preds = %30, %29
  %.not41 = icmp eq ptr %2, null
  br i1 %.not41, label %35, label %32

32:                                               ; preds = %31
  %33 = load i8, ptr %2, align 1, !tbaa !32
  %34 = icmp eq i8 %33, 0
  br i1 %34, label %35, label %39

35:                                               ; preds = %32, %31
  %36 = getelementptr inbounds nuw i8, ptr %0, i64 64
  %37 = load ptr, ptr %36, align 8, !tbaa !33
  %38 = tail call i32 %37(ptr noundef nonnull %0, i32 noundef 3, ptr noundef nonnull @.str.49) #9
  br label %exr_attr_list_find_by_name.exit.thread

39:                                               ; preds = %32
  %40 = getelementptr inbounds nuw i8, ptr %1, i64 16
  %41 = load ptr, ptr %40, align 8, !tbaa !60
  %.not50.i = icmp eq ptr %41, null
  br i1 %.not50.i, label %exr_attr_list_find_by_name.exit.thread, label %42

42:                                               ; preds = %39
  %43 = load i32, ptr %1, align 8, !tbaa !16
  %44 = sext i32 %43 to i64
  %45 = getelementptr inbounds ptr, ptr %41, i64 %44
  %46 = icmp sgt i32 %43, 0
  br i1 %46, label %.lr.ph.i, label %._crit_edge.i

.lr.ph.i:                                         ; preds = %42, %54
  %.03853.i = phi i32 [ %.1.i, %54 ], [ %43, %42 ]
  %.03952.i = phi ptr [ %.140.i, %54 ], [ %41, %42 ]
  %47 = lshr i32 %.03853.i, 1
  %48 = zext nneg i32 %47 to i64
  %49 = getelementptr inbounds nuw ptr, ptr %.03952.i, i64 %48
  %50 = load ptr, ptr %49, align 8, !tbaa !28
  %51 = load ptr, ptr %50, align 8, !tbaa !57
  %52 = tail call i32 @strcmp(ptr noundef nonnull dereferenceable(1) %51, ptr noundef nonnull readonly dereferenceable(1) %2) #8
  %53 = icmp eq i32 %52, 0
  br i1 %53, label %exr_attr_list_find_by_name.exit, label %54

54:                                               ; preds = %.lr.ph.i
  %55 = icmp slt i32 %52, 0
  %56 = getelementptr inbounds nuw i8, ptr %49, i64 8
  %.neg.i = xor i32 %47, -1
  %57 = add nsw i32 %.03853.i, %.neg.i
  %.140.i = select i1 %55, ptr %56, ptr %.03952.i
  %.1.i = select i1 %55, i32 %57, i32 %47
  %58 = icmp sgt i32 %.1.i, 0
  br i1 %58, label %.lr.ph.i, label %._crit_edge.i, !llvm.loop !61

._crit_edge.i:                                    ; preds = %54, %42
  %.039.lcssa.i = phi ptr [ %41, %42 ], [ %.140.i, %54 ]
  %59 = icmp ult ptr %.039.lcssa.i, %45
  br i1 %59, label %60, label %exr_attr_list_find_by_name.exit.thread

60:                                               ; preds = %._crit_edge.i
  %61 = load ptr, ptr %.039.lcssa.i, align 8, !tbaa !28
  %62 = load ptr, ptr %61, align 8, !tbaa !57
  %63 = tail call i32 @strcmp(ptr noundef nonnull dereferenceable(1) %62, ptr noundef nonnull readonly dereferenceable(1) %2) #8
  %64 = icmp eq i32 %63, 0
  br i1 %64, label %exr_attr_list_find_by_name.exit, label %exr_attr_list_find_by_name.exit.thread

exr_attr_list_find_by_name.exit:                  ; preds = %.lr.ph.i, %60
  %.043 = phi ptr [ %61, %60 ], [ %50, %.lr.ph.i ]
  %65 = icmp ne i32 %3, 0
  %or.cond3 = and i1 %65, %24
  br i1 %or.cond3, label %66, label %72

66:                                               ; preds = %exr_attr_list_find_by_name.exit
  %67 = getelementptr inbounds nuw i8, ptr %0, i64 72
  %68 = load ptr, ptr %67, align 8, !tbaa !55
  %69 = getelementptr inbounds nuw i8, ptr %.043, i64 8
  %70 = load ptr, ptr %69, align 8, !tbaa !56
  %71 = tail call i32 (ptr, i32, ptr, ...) %68(ptr noundef nonnull %0, i32 noundef 3, ptr noundef nonnull @.str.50, ptr noundef nonnull %2, ptr noundef %70) #9
  br label %exr_attr_list_find_by_name.exit.thread

72:                                               ; preds = %exr_attr_list_find_by_name.exit
  store ptr %.043, ptr %5, align 8, !tbaa !28
  br label %exr_attr_list_find_by_name.exit.thread

exr_attr_list_find_by_name.exit.thread:           ; preds = %39, %60, %._crit_edge.i, %72, %66, %35, %25, %18, %12, %7
  %.0 = phi i32 [ %21, %18 ], [ %38, %35 ], [ %71, %66 ], [ -1, %72 ], [ %28, %25 ], [ %15, %12 ], [ %10, %7 ], [ 0, %._crit_edge.i ], [ 0, %60 ], [ 0, %39 ]
  ret i32 %.0
}